target datalayout = "e-m:e-p270:32:32-p271:32:32-p272:64:64-i64:64-i128:128-f80:128-n8:16:32:64-S128"
target triple = "x86_64-pc-linux-gnu"

@methods_bufferevent = internal global ptr null, align 8
@.str = private unnamed_addr constant [12 x i8] c"bufferevent\00", align 1

; Function Attrs: nounwind uwtable
define internal ptr @BIO_s_bufferevent() #0 {
  %1 = alloca ptr, align 8
  %2 = load ptr, ptr @methods_bufferevent, align 8
  %3 = icmp eq ptr %2, null
  br i1 %3, label %4, label %22

4:                                                ; preds = %0
  %5 = call ptr @BIO_meth_new(i32 noundef 57, ptr noundef @.str)
  store ptr %5, ptr @methods_bufferevent, align 8
  %6 = load ptr, ptr @methods_bufferevent, align 8
  %7 = icmp eq ptr %6, null
  br i1 %7, label %8, label %9

8:                                                ; preds = %4
  store ptr null, ptr %1, align 8
  br label %24

9:                                                ; preds = %4
  %10 = load ptr, ptr @methods_bufferevent, align 8
  %11 = call i32 @BIO_meth_set_write(ptr noundef %10, ptr noundef @bio_bufferevent_write)
  %12 = load ptr, ptr @methods_bufferevent, align 8
  %13 = call i32 @BIO_meth_set_read(ptr noundef %12, ptr noundef @bio_bufferevent_read)
  %14 = load ptr, ptr @methods_bufferevent, align 8
  %15 = call i32 @BIO_meth_set_puts(ptr noundef %14, ptr noundef @bio_bufferevent_puts)
  %16 = load ptr, ptr @methods_bufferevent, align 8
  %17 = call i32 @BIO_meth_set_ctrl(ptr noundef %16, ptr noundef @bio_bufferevent_ctrl)
  %18 = load ptr, ptr @methods_bufferevent, align 8
  %19 = call i32 @BIO_meth_set_create(ptr noundef %18, ptr noundef @bio_bufferevent_new)
  %20 = load ptr, ptr @methods_bufferevent, align 8
  %21 = call i32 @BIO_meth_set_destroy(ptr noundef %20, ptr noundef @bio_bufferevent_free)
  br label %22

22:                                               ; preds = %9, %0
  %23 = load ptr, ptr @methods_bufferevent, align 8
  store ptr %23, ptr %1, align 8
  br label %24

24:                                               ; preds = %22, %8
  %25 = load ptr, ptr %1, align 8
  ret ptr %25
}

; Function Attrs: nounwind uwtable
define internal ptr @BIO_new_bufferevent(ptr noundef %0) #0 {
  %2 = alloca ptr, align 8
  %3 = alloca ptr, align 8
  %4 = alloca ptr, align 8
  %5 = alloca i32, align 4
  store ptr %0, ptr %3, align 8
  call void @llvm.lifetime.start.p0(i64 8, ptr %4) #5
  %6 = load ptr, ptr %3, align 8
  %7 = icmp ne ptr %6, null
  br i1 %7, label %9, label %8

8:                                                ; preds = %1
  store ptr null, ptr %2, align 8
  store i32 1, ptr %5, align 4
  br label %20

9:                                                ; preds = %1
  %10 = call ptr @BIO_s_bufferevent()
  %11 = call ptr @BIO_new(ptr noundef %10)
  store ptr %11, ptr %4, align 8
  %12 = icmp ne ptr %11, null
  br i1 %12, label %14, label %13

13:                                               ; preds = %9
  store ptr null, ptr %2, align 8
  store i32 1, ptr %5, align 4
  br label %20

14:                                               ; preds = %9
  %15 = load ptr, ptr %4, align 8
  call void @BIO_set_init(ptr noundef %15, i32 noundef 1)
  %16 = load ptr, ptr %4, align 8
  %17 = load ptr, ptr %3, align 8
  call void @BIO_set_data(ptr noundef %16, ptr noundef %17)
  %18 = load ptr, ptr %4, align 8
  call void @BIO_set_shutdown(ptr noundef %18, i32 noundef 0)
  %19 = load ptr, ptr %4, align 8
  store ptr %19, ptr %2, align 8
  store i32 1, ptr %5, align 4
  br label %20

20:                                               ; preds = %14, %13, %8
  call void @llvm.lifetime.end.p0(i64 8, ptr %4) #5
  %21 = load ptr, ptr %2, align 8
  ret ptr %21
}