; Function Attrs: nounwind uwtable
define internal fastcc ptr @BIO_new_bufferevent(ptr noundef nonnull %0) unnamed_addr #0 {
  %2 = load ptr, ptr @methods_bufferevent, align 8
  %3 = icmp eq ptr %2, null
  br i1 %3, label %4, label %BIO_s_bufferevent.exit

4:                                                ; preds = %1
  %5 = tail call ptr @BIO_meth_new(i32 noundef 57, ptr noundef nonnull @.str) #5
  store ptr %5, ptr @methods_bufferevent, align 8
  %6 = icmp eq ptr %5, null
  br i1 %6, label %BIO_s_bufferevent.exit, label %7

7:                                                ; preds = %4
  %8 = tail call i32 @BIO_meth_set_write(ptr noundef nonnull %5, ptr noundef nonnull @bio_bufferevent_write) #5
  %9 = load ptr, ptr @methods_bufferevent, align 8
  %10 = tail call i32 @BIO_meth_set_read(ptr noundef %9, ptr noundef nonnull @bio_bufferevent_read) #5
  %11 = load ptr, ptr @methods_bufferevent, align 8
  %12 = tail call i32 @BIO_meth_set_puts(ptr noundef %11, ptr noundef nonnull @bio_bufferevent_puts) #5
  %13 = load ptr, ptr @methods_bufferevent, align 8
  %14 = tail call i32 @BIO_meth_set_ctrl(ptr noundef %13, ptr noundef nonnull @bio_bufferevent_ctrl) #5
  %15 = load ptr, ptr @methods_bufferevent, align 8
  %16 = tail call i32 @BIO_meth_set_create(ptr noundef %15, ptr noundef nonnull @bio_bufferevent_new) #5
  %17 = load ptr, ptr @methods_bufferevent, align 8
  %18 = tail call i32 @BIO_meth_set_destroy(ptr noundef %17, ptr noundef nonnull @bio_bufferevent_free) #5
  %.pre.i = load ptr, ptr @methods_bufferevent, align 8
  br label %BIO_s_bufferevent.exit

BIO_s_bufferevent.exit:                           ; preds = %1, %4, %7
  %.0.i = phi ptr [ null, %4 ], [ %.pre.i, %7 ], [ %2, %1 ]
  %19 = tail call ptr @BIO_new(ptr noundef %.0.i) #5
  %.not = icmp eq ptr %19, null
  br i1 %.not, label %21, label %20

20:                                               ; preds = %BIO_s_bufferevent.exit
  tail call void @BIO_set_init(ptr noundef nonnull %19, i32 noundef 1) #5
  tail call void @BIO_set_data(ptr noundef nonnull %19, ptr noundef nonnull %0) #5
  tail call void @BIO_set_shutdown(ptr noundef nonnull %19, i32 noundef 0) #5
  br label %21

21:                                               ; preds = %BIO_s_bufferevent.exit, %20
  ret ptr %19
}